; Function Attrs: nofree norecurse nosync nounwind memory(argmem: readwrite) uwtable
define internal void @filter_scale(ptr noundef writeonly captures(none) %0, ptr noundef readonly captures(none) %1, i32 noundef %2, i32 %3) #7 {
  %5 = icmp sgt i32 %2, 0
  br i1 %5, label %.lr.ph, label %._crit_edge

.lr.ph:                                           ; preds = %4, %.lr.ph
  %.010 = phi i32 [ %11, %.lr.ph ], [ 0, %4 ]
  %.069 = phi ptr [ %12, %.lr.ph ], [ %0, %4 ]
  %.078 = phi ptr [ %13, %.lr.ph ], [ %1, %4 ]
  %6 = load i32, ptr %.078, align 4, !tbaa !58
  %7 = tail call i32 @llvm.smax.i32(i32 %6, i32 0)
  %8 = tail call i32 @llvm.umin.i32(i32 %7, i32 8355840)
  %9 = lshr i32 %8, 15
  %10 = trunc nuw i32 %9 to i8
  store i8 %10, ptr %.069, align 1, !tbaa !81
  %11 = add nuw nsw i32 %.010, 1
  %12 = getelementptr inbounds nuw i8, ptr %.069, i64 1
  %13 = getelementptr inbounds nuw i8, ptr %.078, i64 4
  %exitcond.not = icmp eq i32 %11, %2
  br i1 %exitcond.not, label %._crit_edge, label %.lr.ph, !llvm.loop !93

._crit_edge:                                      ; preds = %.lr.ph, %4
  ret void
}